; Function Attrs: mustprogress nofree norecurse nosync nounwind willreturn memory(read, inaccessiblemem: none) uwtable
define dso_local noundef float @_ZN24btInverseDynamicsBullet311maxAbsMat3xERKNS_5mat3xE(ptr noundef nonnull readonly align 8 captures(none) dereferenceable(88) %0) local_unnamed_addr #3 {
  %2 = getelementptr inbounds nuw i8, ptr %0, i64 4
  %3 = load i32, ptr %2, align 4, !tbaa !19
  %4 = icmp sgt i32 %3, 0
  br i1 %4, label %.preheader.lr.ph, label %._crit_edge

.preheader.lr.ph:                                 ; preds = %1
  %5 = getelementptr inbounds nuw i8, ptr %0, i64 40
  %6 = load ptr, ptr %5, align 8, !tbaa !15
  %7 = zext nneg i32 %3 to i64
  br label %.preheader

.preheader:                                       ; preds = %.preheader.lr.ph, %8
  %indvars.iv15 = phi i64 [ 0, %.preheader.lr.ph ], [ %indvars.iv.next16, %8 ]
  %.0912 = phi float [ 0.000000e+00, %.preheader.lr.ph ], [ %.sroa.speculated, %8 ]
  %invariant.gep = getelementptr inbounds nuw float, ptr %6, i64 %indvars.iv15
  br label %9

._crit_edge:                                      ; preds = %8, %1
  %.09.lcssa = phi float [ 0.000000e+00, %1 ], [ %.sroa.speculated, %8 ]
  ret float %.09.lcssa

8:                                                ; preds = %9
  %indvars.iv.next16 = add nuw nsw i64 %indvars.iv15, 1
  %exitcond18.not = icmp eq i64 %indvars.iv.next16, %7
  br i1 %exitcond18.not, label %._crit_edge, label %.preheader, !llvm.loop !24

9:                                                ; preds = %.preheader, %9
  %indvars.iv = phi i64 [ 0, %.preheader ], [ %indvars.iv.next, %9 ]
  %.110 = phi float [ %.0912, %.preheader ], [ %.sroa.speculated, %9 ]
  %10 = mul nuw nsw i64 %indvars.iv, %7
  %gep = getelementptr inbounds nuw float, ptr %invariant.gep, i64 %10
  %11 = load float, ptr %gep, align 4, !tbaa !4
  %12 = tail call noundef float @llvm.fabs.f32(float %11)
  %13 = fcmp ogt float %.110, %12
  %.sroa.speculated = select i1 %13, float %.110, float %12
  %indvars.iv.next = add nuw nsw i64 %indvars.iv, 1
  %exitcond.not = icmp eq i64 %indvars.iv.next, 3
  br i1 %exitcond.not, label %8, label %9, !llvm.loop !25
}